Certificate:
    Data:
        Version: 3 (0x2)
        Serial Number:
            8d:45:19:db:e4:a3:b3:8b:23:ee:62:2b:98:cb:b7:e5
    Signature Algorithm: sha256WithRSAEncryption
        Issuer: CN=Couchbase CA
        Validity
            Not Before: Mar 17 18:45:56 2020 GMT
            Not After : Jun 20 18:45:56 2022 GMT
        Subject: CN=couchbase-server
        Subject Public Key Info:
            Public Key Algorithm: rsaEncryption
                Public-Key: (2048 bit)
                Modulus:
                    00:bc:b1:c8:51:48:91:09:66:b3:4a:92:69:9d:b9:
                    c6:46:df:b9:e5:f4:d5:15:86:5d:99:31:e7:82:74:
                    2b:96:90:30:22:ba:1b:34:f2:25:03:11:de:37:63:
                    0f:1d:7d:69:fd:15:71:0f:98:c1:d2:85:eb:1d:ef:
                    e6:72:68:84:a7:1e:e5:91:f1:c9:e9:7b:73:fa:f7:
                    bd:0f:64:03:50:8f:bd:5f:fe:6d:c5:d9:90:ef:c8:
                    d8:f7:87:14:00:2d:23:15:bd:62:15:3a:c5:35:83:
                    00:19:9e:4d:a8:3e:d5:68:23:00:29:ed:2c:59:d6:
                    51:ce:19:f3:9d:ec:72:35:91:dc:99:f8:26:42:27:
                    c5:84:2b:89:7c:f9:87:89:8b:73:05:1c:d5:43:11:
                    ef:34:3d:3b:54:9a:f9:16:62:e9:0a:2d:1e:6a:c8:
                    9c:28:b7:e1:49:b9:7e:6e:80:32:be:5b:f1:ef:1f:
                    e8:e4:cb:35:5a:6f:2f:17:d6:90:31:74:7b:5b:80:
                    b4:58:de:4d:bd:91:c6:fa:95:7f:a8:e1:c8:d1:4d:
                    b4:ef:a3:57:2e:4f:48:b1:ed:51:c8:74:95:11:a7:
                    da:e7:44:ff:67:3c:2d:83:fb:b8:6e:fa:16:9e:58:
                    1d:ed:c0:1a:3d:9e:86:cb:84:2b:c5:f1:f7:c8:a6:
                    7c:07
                Exponent: 65537 (0x10001)
        X509v3 extensions:
            X509v3 Basic Constraints: 
                CA:FALSE
            X509v3 Subject Key Identifier: 
                EB:B1:12:86:73:0A:EC:32:B6:9F:67:7D:C5:0C:77:AB:96:23:66:0A
            X509v3 Authority Key Identifier: 
                keyid:EC:F6:99:4B:80:6E:06:35:82:B6:48:4C:E5:79:6A:5E:AC:53:65:53
                DirName:/CN=Couchbase CA
                serial:E9:1A:96:16:22:08:3C:DA

            X509v3 Extended Key Usage: 
                TLS Web Server Authentication
            X509v3 Key Usage: 
                Digital Signature, Key Encipherment
            X509v3 Subject Alternative Name: 
                DNS:*.cb-example-perf, DNS:*.cb-example-perf.default, DNS:*.cb-example-perf.default.svc, DNS:cb-example-perf-srv, DNS:cb-example-perf-srv.default, DNS:cb-example-perf-srv.default.svc, DNS:*.couchbase.cloud, DNS:localhost
    Signature Algorithm: sha256WithRSAEncryption
         37:e5:fb:10:14:5f:a3:87:50:25:33:30:74:76:8a:63:e9:5c:
         88:21:f8:f8:e2:ba:aa:41:61:30:96:76:05:01:c0:27:ff:96:
         80:a5:43:d9:bd:c6:31:eb:f4:5e:da:1b:13:e2:6c:46:68:4f:
         2c:86:8b:fb:bf:52:97:1d:6e:52:5c:53:1b:b8:42:68:e0:c3:
         47:c1:f8:9d:aa:c8:8a:58:74:e4:6c:84:70:c9:1b:2c:cb:80:
         36:27:69:67:97:32:a1:ff:28:e2:2f:da:14:e3:5d:96:6c:89:
         54:2e:f0:7a:a1:1a:d2:34:b7:0c:2a:49:2c:63:eb:fc:47:1b:
         78:50:04:ad:e2:ad:25:7a:5a:78:5c:27:15:c5:f7:53:c7:e6:
         17:59:d1:e4:c1:b6:82:30:86:d3:a4:47:e0:e6:97:52:69:5d:
         43:b0:28:87:ea:45:82:52:ec:03:0d:8e:1e:88:5e:98:c5:c0:
         c1:05:1b:18:a4:17:ee:24:8b:51:70:3f:4d:d1:d4:f4:5a:04:
         35:df:1e:47:c5:b5:86:39:37:e4:27:49:87:f2:0f:7d:f9:c6:
         34:e2:ba:80:b0:cd:0c:61:28:a2:52:6b:b3:95:c9:21:a1:7c:
         80:cb:d9:b1:bf:6d:63:ad:4d:44:24:2f:53:89:5d:da:30:cd:
         8a:44:3e:9c
-----BEGIN CERTIFICATE-----
MIIEJDCCAwygAwIBAgIRAI1FGdvko7OLI+5iK5jLt+UwDQYJKoZIhvcNAQELBQAw
FzEVMBMGA1UEAwwMQ291Y2hiYXNlIENBMB4XDTIwMDMxNzE4NDU1NloXDTIyMDYy
MDE4NDU1NlowGzEZMBcGA1UEAwwQY291Y2hiYXNlLXNlcnZlcjCCASIwDQYJKoZI
hvcNAQEBBQADggEPADCCAQoCggEBALyxyFFIkQlms0qSaZ25xkbfueX01RWGXZkx
54J0K5aQMCK6GzTyJQMR3jdjDx19af0VcQ+YwdKF6x3v5nJohKce5ZHxyel7c/r3
vQ9kA1CPvV/+bcXZkO/I2PeHFAAtIxW9YhU6xTWDABmeTag+1WgjACntLFnWUc4Z
853scjWR3Jn4JkInxYQriXz5h4mLcwUc1UMR7zQ9O1Sa+RZi6QotHmrInCi34Um5
fm6AMr5b8e8f6OTLNVpvLxfWkDF0e1uAtFjeTb2RxvqVf6jhyNFNtO+jVy5PSLHt
Uch0lRGn2udE/2c8LYP7uG76Fp5YHe3AGj2ehsuEK8Xx98imfAcCAwEAAaOCAWUw
ggFhMAkGA1UdEwQCMAAwHQYDVR0OBBYEFOuxEoZzCuwytp9nfcUMd6uWI2YKMEcG
A1UdIwRAMD6AFOz2mUuAbgY1grZITOV5al6sU2VToRukGTAXMRUwEwYDVQQDDAxD
b3VjaGJhc2UgQ0GCCQDpGpYWIgg82jATBgNVHSUEDDAKBggrBgEFBQcDATALBgNV
HQ8EBAMCBaAwgckGA1UdEQSBwTCBvoIRKi5jYi1leGFtcGxlLXBlcmaCGSouY2It
ZXhhbXBsZS1wZXJmLmRlZmF1bHSCHSouY2ItZXhhbXBsZS1wZXJmLmRlZmF1bHQu
c3ZjghNjYi1leGFtcGxlLXBlcmYtc3J2ghtjYi1leGFtcGxlLXBlcmYtc3J2LmRl
ZmF1bHSCH2NiLWV4YW1wbGUtcGVyZi1zcnYuZGVmYXVsdC5zdmOCESouY291Y2hi
YXNlLmNsb3Vkgglsb2NhbGhvc3QwDQYJKoZIhvcNAQELBQADggEBADfl+xAUX6OH
UCUzMHR2imPpXIgh+PjiuqpBYTCWdgUBwCf/loClQ9m9xjHr9F7aGxPibEZoTyyG
i/u/UpcdblJcUxu4Qmjgw0fB+J2qyIpYdORshHDJGyzLgDYnaWeXMqH/KOIv2hTj
XZZsiVQu8HqhGtI0twwqSSxj6/xHG3hQBK3irSV6WnhcJxXF91PH5hdZ0eTBtoIw
htOkR+Dml1JpXUOwKIfqRYJS7AMNjh6IXpjFwMEFGxikF+4ki1FwP03R1PRaBDXf
HkfFtYY5N+QnSYfyD335xjTiuoCwzQxhKKJSa7OVySGhfIDL2bG/bWOtTUQkL1OJ
XdowzYpEPpw=
-----END CERTIFICATE-----
